(dp0
cdatetime
datetime
p1
(S'\x07\xdd\x04\x0c\r\x0b(\x00\x00\x00'
p2
ccopy_reg
_reconstructor
p3
(cdateutil.tz
tzutc
p4
cdatetime
tzinfo
p5
g5
(tRp6
tp7
Rp8
tp9
Rp10
(lp11
I451
aI452
aI453
aI454
aI455
aI456
aI457
aI458
aI459
aI460
aI461
aI462
aI463
aI464
aI465
aI466
aI467
aI468
aI469
aI470
aI471
asg1
(S'\x07\xdc\x0b\r\x05%6\x00\x00\x00'
p12
g3
(g4
g5
g5
(tRp13
tp14
Rp15
tp16
Rp17
(lp18
I124
aI125
aI126
aI127
aI128
aI129
aI130
aI131
aI132
aI133
aI134
aI135
aI136
aI137
aI138
aI139
aI140
aI141
aI142
aI143
aI144
asg1
(S'\x07\xdc\x0b\x17\x065\x1d\x00\x00\x00'
p19
g3
(g4
g5
g5
(tRp20
tp21
Rp22
tp23
Rp24
(lp25
I145
aI146
aI147
aI148
aI149
aI150
aI151
aI152
aI153
aI154
aI155
aI156
aI157
aI158
aI159
aI160
aI161
aI162
aI163
aI164
aI165
asg1
(S'\x07\xdd\x06\x01\x0e\x11\x1f\x00\x00\x00'
p26
g3
(g4
g5
g5
(tRp27
tp28
Rp29
tp30
Rp31
(lp32
I556
aI557
aI558
aI559
aI560
aI561
aI562
aI563
aI564
aI565
aI566
aI567
aI568
aI569
aI570
aI571
aI572
aI573
aI574
aI575
aI576
asg1
(S'\x07\xdd\x03\x17\x0c\x1d-\x00\x00\x00'
p33
g3
(g4
g5
g5
(tRp34
tp35
Rp36
tp37
Rp38
(lp39
I409
aI410
aI411
aI412
aI413
aI414
aI415
aI416
aI417
aI418
aI419
aI420
aI421
aI422
aI423
aI424
aI425
aI426
aI427
aI428
aI429
aI430
aI431
asg1
(S'\x07\xdd\x02\x0b\n\x13/\x00\x00\x00'
p40
g3
(g4
g5
g5
(tRp41
tp42
Rp43
tp44
Rp45
(lp46
I316
aI317
aI318
aI319
aI320
aI321
aI322
aI323
aI324
aI325
aI326
aI327
aI328
aI329
aI330
aI331
aI332
aI333
aI334
aI335
aI336
aI337
aI338
asg1
(S'\x07\xdd\x08\x14\x10\n\x0f\x00\x00\x00'
p47
g3
(g4
g5
g5
(tRp48
tp49
Rp50
tp51
Rp52
(lp53
I727
aI728
aI729
aI730
aI731
aI732
aI733
aI734
aI735
aI736
aI737
aI738
aI739
aI740
aI741
aI742
aI743
aI744
aI745
aI746
aI747
aI748
aI749
aI750
aI751
asg1
(S'\x07\xdd\x02\x01\n\r4\x00\x00\x00'
p54
g3
(g4
g5
g5
(tRp55
tp56
Rp57
tp58
Rp59
(lp60
I293
aI294
aI295
aI296
aI297
aI298
aI299
aI300
aI301
aI302
aI303
aI304
aI305
aI306
aI307
aI308
aI309
aI310
aI311
aI312
aI313
aI314
aI315
asg1
(S'\x07\xdc\n\x18\x03\x08!\x00\x00\x00'
p61
g3
(g4
g5
g5
(tRp62
tp63
Rp64
tp65
Rp66
(lp67
I73
aI74
aI75
aI76
aI77
aI78
aI79
aI80
aI81
aI82
aI83
aI84
aI85
aI86
aI87
aI88
aI89
aI90
aI91
aI92
aI93
aI94
aI95
aI96
aI97
aI98
aI99
aI100
aI101
asg1
(S'\x07\xdd\x07\x01\x0e4*\x00\x00\x00'
p68
g3
(g4
g5
g5
(tRp69
tp70
Rp71
tp72
Rp73
(lp74
I625
aI626
aI627
aI628
aI629
aI630
aI631
aI632
aI633
aI634
aI635
aI636
aI637
aI638
aI639
aI640
aI641
aI642
aI643
aI644
aI645
asg1
(S'\x07\xdd\x04\x16\r\x136\x00\x00\x00'
p75
g3
(g4
g5
g5
(tRp76
tp77
Rp78
tp79
Rp80
(lp81
I472
aI473
aI474
aI475
aI476
aI477
aI478
aI479
aI480
aI481
aI482
aI483
aI484
aI485
aI486
asg1
(S'\x07\xdd\x01\x02\t\x1d\x13\x00\x00\x00'
p82
g3
(g4
g5
g5
(tRp83
tp84
Rp85
tp86
Rp87
(lp88
I232
aI233
aI234
aI235
aI236
aI237
aI238
aI239
aI240
aI241
aI242
aI243
aI244
aI245
aI246
aI247
aI248
aI249
aI250
asg1
(S'\x07\xdc\x0c\r\x08\x1d\x06\x00\x00\x00'
p89
g3
(g4
g5
g5
(tRp90
tp91
Rp92
tp93
Rp94
(lp95
I191
aI192
aI193
aI194
aI195
aI196
aI197
aI198
aI199
aI200
aI201
aI202
aI203
aI204
aI205
aI206
aI207
aI208
aI209
aI210
aI211
aI212
asg1
(S'\x07\xdd\t\t\x103,\x00\x00\x00'
p96
g3
(g4
g5
g5
(tRp97
tp98
Rp99
tp100
Rp101
(lp102
I772
aI773
aI774
aI775
aI776
aI777
aI778
aI779
aI780
aI781
aI782
aI783
aI784
aI785
aI786
aI787
aI788
aI789
aI790
aI791
aI792
aI793
asg1
(S'\x07\xdd\x06\x0b\x0e(\x08\x00\x00\x00'
p103
g3
(g4
g5
g5
(tRp104
tp105
Rp106
tp107
Rp108
(lp109
I577
aI578
aI579
aI580
aI581
aI582
aI583
aI584
aI585
aI586
aI587
aI588
aI589
aI590
aI591
aI592
aI593
aI594
aI595
aI596
aI597
aI598
asg1
(S'\x07\xdd\x03\x03\n4\x02\x00\x00\x00'
p110
g3
(g4
g5
g5
(tRp111
tp112
Rp113
tp114
Rp115
(lp116
I359
aI360
aI361
aI362
aI363
aI364
aI365
aI366
aI367
aI368
aI369
aI370
aI371
aI372
aI373
aI374
aI375
aI376
aI377
aI378
aI379
aI380
aI381
asg1
(S'\x07\xdc\t\x17\x177)\x00\x00\x00'
p117
g3
(g4
g5
g5
(tRp118
tp119
Rp120
tp121
Rp122
(lp123
I1
aI2
aI3
aI4
aI5
aI6
aI7
aI8
aI9
aI10
aI11
aI12
aI13
aI14
aI15
aI16
aI17
aI18
aI19
asg1
(S'\x07\xdd\x07\x0b\x0f\x08\x1f\x00\x00\x00'
p124
g3
(g4
g5
g5
(tRp125
tp126
Rp127
tp128
Rp129
(lp130
I646
aI647
aI648
aI649
aI650
aI651
aI652
aI653
aI654
aI655
aI656
aI657
aI658
aI659
aI660
aI661
aI662
aI663
aI664
aI665
asg1
(S'\x07\xdd\x06\x15\x0e09\x00\x00\x00'
p131
g3
(g4
g5
g5
(tRp132
tp133
Rp134
tp135
Rp136
(lp137
I599
aI600
aI601
aI602
aI603
aI604
aI605
aI606
aI607
aI608
aI609
aI610
aI611
aI612
aI613
aI614
aI615
aI616
aI617
aI618
aI619
aI620
aI621
aI622
aI623
aI624
asg1
(S'\x07\xdd\x07\x15\x0f\x0c-\x00\x00\x00'
p138
g3
(g4
g5
g5
(tRp139
tp140
Rp141
tp142
Rp143
(lp144
I666
aI667
aI668
aI669
aI670
aI671
aI672
aI673
aI674
aI675
aI676
aI677
aI678
aI679
aI680
aI681
aI682
aI683
aI684
aI685
asg1
(S'\x07\xdc\x0c\x03\x07,;\x00\x00\x00'
p145
g3
(g4
g5
g5
(tRp146
tp147
Rp148
tp149
Rp150
(lp151
I166
aI167
aI168
aI169
aI170
aI171
aI172
aI173
aI174
aI175
aI176
aI177
aI178
aI179
aI180
aI181
aI182
aI183
aI184
aI185
aI186
aI187
aI188
aI189
aI190
asg1
(S'\x07\xdd\x07\x1f\x0f)\r\x00\x00\x00'
p152
g3
(g4
g5
g5
(tRp153
tp154
Rp155
tp156
Rp157
(lp158
I686
aI687
aI688
aI689
aI690
aI691
aI692
aI693
aI694
aI695
aI696
aI697
aI698
aI699
aI700
aI701
aI702
aI703
asg1
(S'\x07\xdd\x04\x02\x0c5,\x00\x00\x00'
p159
g3
(g4
g5
g5
(tRp160
tp161
Rp162
tp163
Rp164
(lp165
I432
aI433
aI434
aI435
aI436
aI437
aI438
aI439
aI440
aI441
aI442
aI443
aI444
aI445
aI446
aI447
aI448
aI449
aI450
asg1
(S'\x07\xdd\x08\n\x0f;\x10\x00\x00\x00'
p166
g3
(g4
g5
g5
(tRp167
tp168
Rp169
tp170
Rp171
(lp172
I704
aI705
aI706
aI707
aI708
aI709
aI710
aI711
aI712
aI713
aI714
aI715
aI716
aI717
aI718
aI719
aI720
aI721
aI722
aI723
aI724
aI725
aI726
asg1
(S'\x07\xdc\x0b\x03\x03\x0b\x16\x00\x00\x00'
p173
g3
(g4
g5
g5
(tRp174
tp175
Rp176
tp177
Rp178
(lp179
I102
aI103
aI104
aI105
aI106
aI107
aI108
aI109
aI110
aI111
aI112
aI113
aI114
aI115
aI116
aI117
aI118
aI119
aI120
aI121
aI122
aI123
asg1
(S'\x07\xdd\x05\x16\x0e\x0b\x0e\x00\x00\x00'
p180
g3
(g4
g5
g5
(tRp181
tp182
Rp183
tp184
Rp185
(lp186
I536
aI537
aI538
aI539
aI540
aI541
aI542
aI543
aI544
aI545
aI546
aI547
aI548
aI549
aI550
aI551
aI552
aI553
aI554
aI555
asg1
(S'\x07\xdd\x01\x16\n\x00\x07\x00\x00\x00'
p187
g3
(g4
g5
g5
(tRp188
tp189
Rp190
tp191
Rp192
(lp193
I273
aI274
aI275
aI276
aI277
aI278
aI279
aI280
aI281
aI282
aI283
aI284
aI285
aI286
aI287
aI288
aI289
aI290
aI291
aI292
asg1
(S'\x07\xdd\x03\r\x0b#/\x00\x00\x00'
p194
g3
(g4
g5
g5
(tRp195
tp196
Rp197
tp198
Rp199
(lp200
I382
aI383
aI384
aI385
aI386
aI387
aI388
aI389
aI390
aI391
aI392
aI393
aI394
aI395
aI396
aI397
aI398
aI399
aI400
aI401
aI402
aI403
aI404
aI405
aI406
aI407
aI408
asg1
(S'\x07\xdd\x05\x0c\x0e\x01)\x00\x00\x00'
p201
g3
(g4
g5
g5
(tRp202
tp203
Rp204
tp205
Rp206
(lp207
I509
aI510
aI511
aI512
aI513
aI514
aI515
aI516
aI517
aI518
aI519
aI520
aI521
aI522
aI523
aI524
aI525
aI526
aI527
aI528
aI529
aI530
aI531
aI532
aI533
aI534
aI535
asg1
(S"\x07\xdd\x02\x15\n!'\x00\x00\x00"
p208
g3
(g4
g5
g5
(tRp209
tp210
Rp211
tp212
Rp213
(lp214
I339
aI340
aI341
aI342
aI343
aI344
aI345
aI346
aI347
aI348
aI349
aI350
aI351
aI352
aI353
aI354
aI355
aI356
aI357
aI358
asg1
(S'\x07\xdd\x05\x02\r6\t\x00\x00\x00'
p215
g3
(g4
g5
g5
(tRp216
tp217
Rp218
tp219
Rp220
(lp221
I487
aI488
aI489
aI490
aI491
aI492
aI493
aI494
aI495
aI496
aI497
aI498
aI499
aI500
aI501
aI502
aI503
aI504
aI505
aI506
aI507
aI508
asg1
(S'\x07\xdc\n\x04\x000\x1b\x00\x00\x00'
p222
g3
(g4
g5
g5
(tRp223
tp224
Rp225
tp226
Rp227
(lp228
I20
aI21
aI22
aI23
aI24
aI25
aI26
aI27
aI28
aI29
aI30
aI31
aI32
aI33
aI34
aI35
aI36
aI37
aI38
aI39
aI40
aI41
aI42
aI43
aI44
asg1
(S'\x07\xdc\n\x0e\x02\x1f\x0b\x00\x00\x00'
p229
g3
(g4
g5
g5
(tRp230
tp231
Rp232
tp233
Rp234
(lp235
I45
aI46
aI47
aI48
aI49
aI50
aI51
aI52
aI53
aI54
aI55
aI56
aI57
aI58
aI59
aI60
aI61
aI62
aI63
aI64
aI65
aI66
aI67
aI68
aI69
aI70
aI71
aI72
asg1
(S'\x07\xdd\x08\x1e\x10\x109\x00\x00\x00'
p236
g3
(g4
g5
g5
(tRp237
tp238
Rp239
tp240
Rp241
(lp242
I752
aI753
aI754
aI755
aI756
aI757
aI758
aI759
aI760
aI761
aI762
aI763
aI764
aI765
aI766
aI767
aI768
aI769
aI770
aI771
asg1
(S'\x07\xdd\x01\x0c\t93\x00\x00\x00'
p243
g3
(g4
g5
g5
(tRp244
tp245
Rp246
tp247
Rp248
(lp249
I251
aI252
aI253
aI254
aI255
aI256
aI257
aI258
aI259
aI260
aI261
aI262
aI263
aI264
aI265
aI266
aI267
aI268
aI269
aI270
aI271
aI272
asg1
(S'\x07\xdc\x0c\x17\t\x0c\x12\x00\x00\x00'
p250
g3
(g4
g5
g5
(tRp251
tp252
Rp253
tp254
Rp255
(lp256
I213
aI214
aI215
aI216
aI217
aI218
aI219
aI220
aI221
aI222
aI223
aI224
aI225
aI226
aI227
aI228
aI229
aI230
aI231
as.